target datalayout = "e-m:e-p270:32:32-p271:32:32-p272:64:64-i64:64-i128:128-f80:128-n8:16:32:64-S128"
target triple = "x86_64-pc-linux-gnu"

%struct.Test3A = type { [2 x float], [2 x float] }

; Function Attrs: nounwind uwtable
define double @_testfunc_array_in_struct3A(<2 x float> %0, <2 x float> %1) #4 {
  %3 = alloca %struct.Test3A, align 4
  %4 = alloca double, align 8
  %5 = alloca i32, align 4
  %6 = alloca i32, align 4
  %7 = getelementptr inbounds nuw { <2 x float>, <2 x float> }, ptr %3, i32 0, i32 0
  store <2 x float> %0, ptr %7, align 4
  %8 = getelementptr inbounds nuw { <2 x float>, <2 x float> }, ptr %3, i32 0, i32 1
  store <2 x float> %1, ptr %8, align 4
  call void @llvm.lifetime.start.p0(i64 8, ptr %4) #12
  store double 0.000000e+00, ptr %4, align 8, !tbaa !9
  call void @llvm.lifetime.start.p0(i64 4, ptr %5) #12
  store i32 0, ptr %5, align 4, !tbaa !3
  br label %9

9:                                                ; preds = %23, %2
  %10 = load i32, ptr %5, align 4, !tbaa !3
  %11 = zext i32 %10 to i64
  %12 = icmp ult i64 %11, 2
  br i1 %12, label %14, label %13

13:                                               ; preds = %9
  call void @llvm.lifetime.end.p0(i64 4, ptr %5) #12
  br label %26

14:                                               ; preds = %9
  %15 = getelementptr inbounds nuw %struct.Test3A, ptr %3, i32 0, i32 0
  %16 = load i32, ptr %5, align 4, !tbaa !3
  %17 = zext i32 %16 to i64
  %18 = getelementptr [2 x float], ptr %15, i64 0, i64 %17
  %19 = load float, ptr %18, align 4, !tbaa !23
  %20 = fpext float %19 to double
  %21 = load double, ptr %4, align 8, !tbaa !9
  %22 = fadd double %21, %20
  store double %22, ptr %4, align 8, !tbaa !9
  br label %23

23:                                               ; preds = %14
  %24 = load i32, ptr %5, align 4, !tbaa !3
  %25 = add i32 %24, 1
  store i32 %25, ptr %5, align 4, !tbaa !3
  br label %9, !llvm.loop !25

26:                                               ; preds = %13
  call void @llvm.lifetime.start.p0(i64 4, ptr %6) #12
  store i32 0, ptr %6, align 4, !tbaa !3
  br label %27

27:                                               ; preds = %41, %26
  %28 = load i32, ptr %6, align 4, !tbaa !3
  %29 = zext i32 %28 to i64
  %30 = icmp ult i64 %29, 2
  br i1 %30, label %32, label %31

31:                                               ; preds = %27
  call void @llvm.lifetime.end.p0(i64 4, ptr %6) #12
  br label %44

32:                                               ; preds = %27
  %33 = getelementptr inbounds nuw %struct.Test3A, ptr %3, i32 0, i32 1
  %34 = load i32, ptr %6, align 4, !tbaa !3
  %35 = zext i32 %34 to i64
  %36 = getelementptr [2 x float], ptr %33, i64 0, i64 %35
  %37 = load float, ptr %36, align 4, !tbaa !23
  %38 = fpext float %37 to double
  %39 = load double, ptr %4, align 8, !tbaa !9
  %40 = fadd double %39, %38
  store double %40, ptr %4, align 8, !tbaa !9
  br label %41

41:                                               ; preds = %32
  %42 = load i32, ptr %6, align 4, !tbaa !3
  %43 = add i32 %42, 1
  store i32 %43, ptr %6, align 4, !tbaa !3
  br label %27, !llvm.loop !26

44:                                               ; preds = %31
  %45 = getelementptr inbounds nuw %struct.Test3A, ptr %3, i32 0, i32 0
  %46 = getelementptr inbounds [2 x float], ptr %45, i64 0, i64 0
  call void @llvm.memset.p0.i64(ptr align 4 %46, i8 0, i64 8, i1 false)
  %47 = load double, ptr %4, align 8, !tbaa !9
  call void @llvm.lifetime.end.p0(i64 8, ptr %4) #12
  ret double %47
}