; Function Attrs: nofree norecurse nosync nounwind memory(none) uwtable
define double @_testfunc_array_in_struct3A(<2 x float> %0, <2 x float> %1) local_unnamed_addr #7 {
  %3 = alloca %struct.Test3A, align 8
  store <2 x float> %0, ptr %3, align 8
  %4 = getelementptr inbounds nuw i8, ptr %3, i64 8
  store <2 x float> %1, ptr %4, align 8
  %indvars.iv.sroa.gep24 = getelementptr inbounds nuw i8, ptr %3, i64 4
  br label %5

5:                                                ; preds = %2, %5
  %6 = phi i1 [ true, %2 ], [ false, %5 ]
  %indvars.iv.sroa.phi = phi ptr [ %3, %2 ], [ %indvars.iv.sroa.gep24, %5 ]
  %.0912 = phi double [ 0.000000e+00, %2 ], [ %9, %5 ]
  %7 = load float, ptr %indvars.iv.sroa.phi, align 4, !tbaa !18
  %8 = fpext float %7 to double
  %9 = fadd double %.0912, %8
  br i1 %6, label %5, label %.preheader, !llvm.loop !20

10:                                               ; preds = %.preheader
  ret double %15

.preheader:                                       ; preds = %5, %.preheader
  %11 = phi i1 [ false, %.preheader ], [ true, %5 ]
  %indvars.iv18 = phi i64 [ 1, %.preheader ], [ 0, %5 ]
  %.114 = phi double [ %15, %.preheader ], [ %9, %5 ]
  %12 = getelementptr [2 x float], ptr %4, i64 0, i64 %indvars.iv18
  %13 = load float, ptr %12, align 4, !tbaa !18
  %14 = fpext float %13 to double
  %15 = fadd double %.114, %14
  br i1 %11, label %.preheader, label %10, !llvm.loop !21
}